; Function Attrs: mustprogress uwtable
define hidden void @_ZN4cvc58internal6theory7strings10ExtfSolver11processFactERNS2_9InferInfoERPNS0_14ProofGeneratorE(ptr noundef nonnull readonly align 8 captures(none) dereferenceable(464) %0, ptr noundef nonnull align 8 dereferenceable(200) %1, ptr noundef nonnull align 8 dereferenceable(8) %2) unnamed_addr #3 align 2 {
  %4 = getelementptr inbounds nuw i8, ptr %0, i64 32
  %5 = load ptr, ptr %4, align 8, !tbaa !358
  %6 = load ptr, ptr %5, align 8, !tbaa !3
  %7 = getelementptr inbounds nuw i8, ptr %6, i64 24
  %8 = load ptr, ptr %7, align 8
  tail call void %8(ptr noundef nonnull align 8 dereferenceable(432) %5, ptr noundef nonnull align 8 dereferenceable(200) %1, ptr noundef nonnull align 8 dereferenceable(8) %2)
  ret void
}